; Function Attrs: nofree norecurse nosync nounwind memory(argmem: readwrite) uwtable
define internal void @sbc_analyze_8_simd(ptr noundef readonly captures(none) %0, ptr noundef writeonly captures(none) %1, ptr noundef readonly captures(none) %2) #1 {
  %4 = alloca [8 x i32], align 16
  %5 = alloca [8 x i16], align 16
  call void @llvm.lifetime.start.p0(i64 32, ptr nonnull %4) #7
  call void @llvm.lifetime.start.p0(i64 16, ptr nonnull %5) #7
  br label %6

6:                                                ; preds = %3, %6
  %indvars.iv = phi i64 [ 0, %3 ], [ %indvars.iv.next, %6 ]
  %7 = getelementptr inbounds nuw [8 x i32], ptr %4, i64 0, i64 %indvars.iv
  store i32 32768, ptr %7, align 4, !tbaa !18
  %indvars.iv.next = add nuw nsw i64 %indvars.iv, 1
  %exitcond.not = icmp eq i64 %indvars.iv.next, 8
  br i1 %exitcond.not, label %.preheader5, label %6, !llvm.loop !19

.preheader5:                                      ; preds = %6, %22
  %indvars.iv19 = phi i64 [ %indvars.iv.next20, %22 ], [ 0, %6 ]
  br label %8

8:                                                ; preds = %.preheader5, %8
  %indvars.iv15 = phi i64 [ 0, %.preheader5 ], [ %indvars.iv.next16, %8 ]
  %9 = or disjoint i64 %indvars.iv15, %indvars.iv19
  %10 = getelementptr inbounds nuw i16, ptr %0, i64 %9
  %11 = load i16, ptr %10, align 2, !tbaa !21
  %12 = sext i16 %11 to i32
  %13 = getelementptr inbounds nuw i16, ptr %2, i64 %9
  %14 = load i16, ptr %13, align 2, !tbaa !21
  %15 = sext i16 %14 to i32
  %16 = mul nsw i32 %15, %12
  %17 = lshr i64 %indvars.iv15, 1
  %18 = and i64 %17, 2147483647
  %19 = getelementptr inbounds nuw [8 x i32], ptr %4, i64 0, i64 %18
  %20 = load i32, ptr %19, align 4, !tbaa !18
  %21 = add nsw i32 %16, %20
  store i32 %21, ptr %19, align 4, !tbaa !18
  %indvars.iv.next16 = add nuw nsw i64 %indvars.iv15, 1
  %exitcond18.not = icmp eq i64 %indvars.iv.next16, 16
  br i1 %exitcond18.not, label %22, label %8, !llvm.loop !23

22:                                               ; preds = %8
  %indvars.iv.next20 = add nuw nsw i64 %indvars.iv19, 16
  %23 = icmp samesign ult i64 %indvars.iv19, 64
  br i1 %23, label %.preheader5, label %.preheader4, !llvm.loop !24

.preheader4:                                      ; preds = %22, %.preheader4
  %indvars.iv22 = phi i64 [ %indvars.iv.next23, %.preheader4 ], [ 0, %22 ]
  %24 = getelementptr inbounds nuw [8 x i32], ptr %4, i64 0, i64 %indvars.iv22
  %25 = load i32, ptr %24, align 4, !tbaa !18
  %26 = lshr i32 %25, 16
  %27 = trunc nuw i32 %26 to i16
  %28 = getelementptr inbounds nuw [8 x i16], ptr %5, i64 0, i64 %indvars.iv22
  store i16 %27, ptr %28, align 2, !tbaa !21
  %indvars.iv.next23 = add nuw nsw i64 %indvars.iv22, 1
  %exitcond25.not = icmp eq i64 %indvars.iv.next23, 8
  br i1 %exitcond25.not, label %29, label %.preheader4, !llvm.loop !25

29:                                               ; preds = %.preheader4
  call void @llvm.memset.p0.i64(ptr noundef nonnull align 16 dereferenceable(32) %4, i8 0, i64 32, i1 false)
  %invariant.gep39 = getelementptr inbounds nuw i8, ptr %2, i64 160
  br label %.preheader3

.preheader3:                                      ; preds = %29, %45
  %indvars.iv30 = phi i64 [ 0, %29 ], [ %indvars.iv.next31, %45 ]
  %30 = shl nuw i64 %indvars.iv30, 1
  %.masked = and i64 %30, 4294967294
  %.idx = shl nuw nsw i64 %indvars.iv30, 5
  %gep = getelementptr inbounds nuw i8, ptr %invariant.gep39, i64 %.idx
  br label %31

31:                                               ; preds = %.preheader3, %31
  %indvars.iv26 = phi i64 [ 0, %.preheader3 ], [ %indvars.iv.next27, %31 ]
  %32 = and i64 %indvars.iv26, 1
  %33 = or disjoint i64 %32, %.masked
  %34 = getelementptr inbounds nuw [8 x i16], ptr %5, i64 0, i64 %33
  %35 = load i16, ptr %34, align 2, !tbaa !21
  %36 = sext i16 %35 to i32
  %gep38 = getelementptr inbounds nuw i16, ptr %gep, i64 %indvars.iv26
  %37 = load i16, ptr %gep38, align 2, !tbaa !21
  %38 = sext i16 %37 to i32
  %39 = mul nsw i32 %38, %36
  %40 = lshr i64 %indvars.iv26, 1
  %41 = and i64 %40, 2147483647
  %42 = getelementptr inbounds nuw [8 x i32], ptr %4, i64 0, i64 %41
  %43 = load i32, ptr %42, align 4, !tbaa !18
  %44 = add nsw i32 %39, %43
  store i32 %44, ptr %42, align 4, !tbaa !18
  %indvars.iv.next27 = add nuw nsw i64 %indvars.iv26, 1
  %exitcond29.not = icmp eq i64 %indvars.iv.next27, 16
  br i1 %exitcond29.not, label %45, label %31, !llvm.loop !26

45:                                               ; preds = %31
  %indvars.iv.next31 = add nuw nsw i64 %indvars.iv30, 1
  %exitcond33.not = icmp eq i64 %indvars.iv.next31, 4
  br i1 %exitcond33.not, label %.preheader.preheader, label %.preheader3, !llvm.loop !27

.preheader.preheader:                             ; preds = %45
  call void @llvm.memcpy.p0.p0.i64(ptr noundef nonnull align 4 dereferenceable(32) %1, ptr noundef nonnull align 16 dereferenceable(32) %4, i64 32, i1 false), !tbaa !18
  call void @llvm.lifetime.end.p0(i64 16, ptr nonnull %5) #7
  call void @llvm.lifetime.end.p0(i64 32, ptr nonnull %4) #7
  ret void
}